target datalayout = "e-m:e-p270:32:32-p271:32:32-p272:64:64-i64:64-i128:128-f80:128-n8:16:32:64-S128"
target triple = "x86_64-pc-linux-gnu"

%struct.except_id_t = type { i64, i64 }
%struct._fvalue_t = type { ptr, %union.anon.1 }
%union.anon.1 = type { %struct._protocol_value_t }
%struct._protocol_value_t = type { ptr, i32, ptr, i8 }
%struct.except_stacknode = type { ptr, i32, %union.anon.2 }
%union.anon.2 = type { ptr }
%struct.except_catch = type { ptr, i64, %struct.except_t, [1 x %struct.__jmp_buf_tag] }
%struct.except_t = type { %struct.except_id_t, ptr, ptr }
%struct.__jmp_buf_tag = type { [8 x i64], i32, %struct.__sigset_t }
%struct.__sigset_t = type { [16 x i64] }

@val_to_repr.catch_spec = internal constant [1 x %struct.except_id_t] [%struct.except_id_t { i64 1, i64 0 }], align 16

; Function Attrs: null_pointer_is_valid sspstrong uwtable
define internal ptr @val_to_repr(ptr noundef %0, ptr noundef %1, i32 noundef %2, i32 noundef %3) #0 {
  %5 = alloca ptr, align 8
  %6 = alloca ptr, align 8
  %7 = alloca ptr, align 8
  %8 = alloca i32, align 4
  %9 = alloca i32, align 4
  %10 = alloca i32, align 4
  %11 = alloca ptr, align 8
  %12 = alloca i32, align 4
  %13 = alloca ptr, align 8
  %14 = alloca i32, align 4
  %15 = alloca %struct.except_stacknode, align 8
  %16 = alloca %struct.except_catch, align 8
  store ptr %0, ptr %6, align 8
  store ptr %1, ptr %7, align 8
  store i32 %2, ptr %8, align 4
  store i32 %3, ptr %9, align 4
  call void @llvm.lifetime.start.p0(i64 4, ptr %10) #9
  call void @llvm.lifetime.start.p0(i64 8, ptr %11) #9
  store volatile ptr null, ptr %11, align 8
  %17 = load i32, ptr %8, align 4
  %18 = icmp ne i32 %17, 1
  br i1 %18, label %19, label %20

19:                                               ; preds = %4
  store ptr null, ptr %5, align 8
  store i32 1, ptr %12, align 4
  br label %116

20:                                               ; preds = %4
  call void @llvm.lifetime.start.p0(i64 8, ptr %13) #9
  call void @llvm.lifetime.start.p0(i64 4, ptr %14) #9
  store volatile i32 0, ptr %14, align 4
  call void @llvm.lifetime.start.p0(i64 24, ptr %15) #9
  call void @llvm.lifetime.start.p0(i64 248, ptr %16) #9
  call void @except_setup_try(ptr noundef %15, ptr noundef %16, ptr noundef @val_to_repr.catch_spec, i64 noundef 1)
  %21 = getelementptr inbounds nuw %struct.except_catch, ptr %16, i32 0, i32 3
  %22 = getelementptr inbounds [1 x %struct.__jmp_buf_tag], ptr %21, i64 0, i64 0
  %23 = call i32 @_setjmp(ptr noundef %22) #12
  %24 = icmp ne i32 %23, 0
  br i1 %24, label %25, label %27

25:                                               ; preds = %20
  %26 = getelementptr inbounds nuw %struct.except_catch, ptr %16, i32 0, i32 2
  store volatile ptr %26, ptr %13, align 8
  br label %28

27:                                               ; preds = %20
  store volatile ptr null, ptr %13, align 8
  br label %28

28:                                               ; preds = %27, %25
  %29 = load volatile i32, ptr %14, align 4
  %30 = and i32 %29, 1
  %31 = icmp ne i32 %30, 0
  br i1 %31, label %32, label %35

32:                                               ; preds = %28
  %33 = load volatile i32, ptr %14, align 4
  %34 = or i32 %33, 2
  store volatile i32 %34, ptr %14, align 4
  br label %35

35:                                               ; preds = %32, %28
  %36 = load volatile i32, ptr %14, align 4
  %37 = and i32 %36, -2
  store volatile i32 %37, ptr %14, align 4
  %38 = load volatile i32, ptr %14, align 4
  %39 = icmp eq i32 %38, 0
  br i1 %39, label %40, label %90

40:                                               ; preds = %35
  %41 = load volatile ptr, ptr %13, align 8
  %42 = icmp eq ptr %41, null
  br i1 %42, label %43, label %90

43:                                               ; preds = %40
  %44 = load ptr, ptr %7, align 8
  %45 = getelementptr inbounds nuw %struct._fvalue_t, ptr %44, i32 0, i32 1
  %46 = getelementptr inbounds nuw %struct._protocol_value_t, ptr %45, i32 0, i32 1
  %47 = load i32, ptr %46, align 8
  %48 = icmp sge i32 %47, 0
  br i1 %48, label %49, label %54

49:                                               ; preds = %43
  %50 = load ptr, ptr %7, align 8
  %51 = getelementptr inbounds nuw %struct._fvalue_t, ptr %50, i32 0, i32 1
  %52 = getelementptr inbounds nuw %struct._protocol_value_t, ptr %51, i32 0, i32 1
  %53 = load i32, ptr %52, align 8
  store i32 %53, ptr %10, align 4
  br label %60

54:                                               ; preds = %43
  %55 = load ptr, ptr %7, align 8
  %56 = getelementptr inbounds nuw %struct._fvalue_t, ptr %55, i32 0, i32 1
  %57 = getelementptr inbounds nuw %struct._protocol_value_t, ptr %56, i32 0, i32 0
  %58 = load ptr, ptr %57, align 8
  %59 = call i32 @tvb_captured_length(ptr noundef %58)
  store i32 %59, ptr %10, align 4
  br label %60

60:                                               ; preds = %54, %49
  %61 = load i32, ptr %10, align 4
  %62 = icmp ne i32 %61, 0
  br i1 %62, label %63, label %89

63:                                               ; preds = %60
  %64 = load i32, ptr %8, align 4
  %65 = icmp eq i32 %64, 1
  br i1 %65, label %66, label %77

66:                                               ; preds = %63
  %67 = load ptr, ptr %6, align 8
  %68 = load ptr, ptr %7, align 8
  %69 = getelementptr inbounds nuw %struct._fvalue_t, ptr %68, i32 0, i32 1
  %70 = getelementptr inbounds nuw %struct._protocol_value_t, ptr %69, i32 0, i32 0
  %71 = load ptr, ptr %70, align 8
  %72 = load i32, ptr %10, align 4
  %73 = call ptr @tvb_get_ptr(ptr noundef %71, i32 noundef 0, i32 noundef %72)
  %74 = load i32, ptr %10, align 4
  %75 = zext i32 %74 to i64
  %76 = call ptr @bytes_to_dfilter_repr(ptr noundef %67, ptr noundef %73, i64 noundef %75)
  store volatile ptr %76, ptr %11, align 8
  br label %88

77:                                               ; preds = %63
  %78 = load ptr, ptr %6, align 8
  %79 = load ptr, ptr %7, align 8
  %80 = getelementptr inbounds nuw %struct._fvalue_t, ptr %79, i32 0, i32 1
  %81 = getelementptr inbounds nuw %struct._protocol_value_t, ptr %80, i32 0, i32 0
  %82 = load ptr, ptr %81, align 8
  %83 = load i32, ptr %10, align 4
  %84 = call ptr @tvb_get_ptr(ptr noundef %82, i32 noundef 0, i32 noundef %83)
  %85 = load i32, ptr %10, align 4
  %86 = zext i32 %85 to i64
  %87 = call ptr @bytes_to_str_punct_maxlen(ptr noundef %78, ptr noundef %84, i64 noundef %86, i8 noundef signext 58, i64 noundef 0)
  store volatile ptr %87, ptr %11, align 8
  br label %88

88:                                               ; preds = %77, %66
  br label %89

89:                                               ; preds = %88, %60
  br label %90

90:                                               ; preds = %89, %40, %35
  %91 = load volatile i32, ptr %14, align 4
  %92 = icmp eq i32 %91, 0
  br i1 %92, label %93, label %101

93:                                               ; preds = %90
  %94 = load volatile ptr, ptr %13, align 8
  %95 = icmp ne ptr %94, null
  br i1 %95, label %96, label %101

96:                                               ; preds = %93
  %97 = load volatile i32, ptr %14, align 4
  %98 = or i32 %97, 1
  store volatile i32 %98, ptr %14, align 4
  %99 = icmp ne i32 %98, 0
  br i1 %99, label %100, label %101

100:                                              ; preds = %96
  br label %101

101:                                              ; preds = %100, %96, %93, %90
  %102 = load volatile i32, ptr %14, align 4
  %103 = and i32 %102, 1
  %104 = icmp ne i32 %103, 0
  br i1 %104, label %110, label %105

105:                                              ; preds = %101
  %106 = load volatile ptr, ptr %13, align 8
  %107 = icmp ne ptr %106, null
  br i1 %107, label %108, label %110

108:                                              ; preds = %105
  %109 = load volatile ptr, ptr %13, align 8
  call void @except_rethrow(ptr noundef %109) #13
  unreachable

110:                                              ; preds = %105, %101
  %111 = getelementptr inbounds nuw %struct.except_catch, ptr %16, i32 0, i32 2
  %112 = getelementptr inbounds nuw %struct.except_t, ptr %111, i32 0, i32 2
  %113 = load volatile ptr, ptr %112, align 8
  call void @except_free(ptr noundef %113)
  %114 = call ptr @except_pop()
  call void @llvm.lifetime.end.p0(i64 248, ptr %16) #9
  call void @llvm.lifetime.end.p0(i64 24, ptr %15) #9
  call void @llvm.lifetime.end.p0(i64 4, ptr %14) #9
  call void @llvm.lifetime.end.p0(i64 8, ptr %13) #9
  %115 = load volatile ptr, ptr %11, align 8
  store ptr %115, ptr %5, align 8
  store i32 1, ptr %12, align 4
  br label %116

116:                                              ; preds = %110, %19
  call void @llvm.lifetime.end.p0(i64 8, ptr %11) #9
  call void @llvm.lifetime.end.p0(i64 4, ptr %10) #9
  %117 = load ptr, ptr %5, align 8
  ret ptr %117
}