; Function Attrs: null_pointer_is_valid sspstrong uwtable
define internal ptr @val_to_repr(ptr noundef %0, ptr noundef readonly captures(none) %1, i32 noundef %2, i32 %3) #0 {
  %5 = alloca ptr, align 8
  %6 = alloca ptr, align 8
  %7 = alloca i32, align 4
  %8 = alloca %struct.except_stacknode, align 8
  %9 = alloca %struct.except_catch, align 8
  call void @llvm.lifetime.start.p0(i64 8, ptr nonnull %5)
  store volatile ptr null, ptr %5, align 8
  %.not = icmp eq i32 %2, 1
  br i1 %.not, label %10, label %49

10:                                               ; preds = %4
  call void @llvm.lifetime.start.p0(i64 8, ptr nonnull %6)
  call void @llvm.lifetime.start.p0(i64 4, ptr nonnull %7)
  store volatile i32 0, ptr %7, align 4
  call void @llvm.lifetime.start.p0(i64 24, ptr nonnull %8) #12
  call void @llvm.lifetime.start.p0(i64 248, ptr nonnull %9) #12
  call void @except_setup_try(ptr noundef nonnull %8, ptr noundef nonnull %9, ptr noundef nonnull @val_to_repr.catch_spec, i64 noundef 1)
  %11 = getelementptr inbounds nuw i8, ptr %9, i64 48
  %12 = call i32 @_setjmp(ptr noundef nonnull %11) #13
  %.not29 = icmp eq i32 %12, 0
  %13 = getelementptr inbounds nuw i8, ptr %9, i64 16
  %.sink = select i1 %.not29, ptr null, ptr %13
  store volatile ptr %.sink, ptr %6, align 8
  %.0..0..0..0. = load volatile i32, ptr %7, align 4
  %14 = and i32 %.0..0..0..0., 1
  %.not30 = icmp eq i32 %14, 0
  br i1 %.not30, label %17, label %15

15:                                               ; preds = %10
  %.0..0..0..0.1 = load volatile i32, ptr %7, align 4
  %16 = or i32 %.0..0..0..0.1, 2
  store volatile i32 %16, ptr %7, align 4
  br label %17

17:                                               ; preds = %15, %10
  %.0..0..0..0.2 = load volatile i32, ptr %7, align 4
  %18 = and i32 %.0..0..0..0.2, -2
  store volatile i32 %18, ptr %7, align 4
  %.0..0..0..0.3 = load volatile i32, ptr %7, align 4
  %19 = icmp eq i32 %.0..0..0..0.3, 0
  br i1 %19, label %20, label %36

20:                                               ; preds = %17
  %.0..0..0..0.7 = load volatile ptr, ptr %6, align 8
  %21 = icmp eq ptr %.0..0..0..0.7, null
  br i1 %21, label %22, label %36

22:                                               ; preds = %20
  %23 = getelementptr inbounds nuw i8, ptr %1, i64 8
  %24 = getelementptr inbounds nuw i8, ptr %1, i64 16
  %25 = load i32, ptr %24, align 8
  %26 = icmp sgt i32 %25, -1
  br i1 %26, label %30, label %27

27:                                               ; preds = %22
  %28 = load ptr, ptr %23, align 8
  %29 = call i32 @tvb_captured_length(ptr noundef %28)
  br label %30

30:                                               ; preds = %22, %27
  %.0 = phi i32 [ %29, %27 ], [ %25, %22 ]
  %.not31 = icmp eq i32 %.0, 0
  br i1 %.not31, label %36, label %31

31:                                               ; preds = %30
  %32 = load ptr, ptr %23, align 8
  %33 = call ptr @tvb_get_ptr(ptr noundef %32, i32 noundef 0, i32 noundef %.0)
  %34 = zext i32 %.0 to i64
  %35 = call ptr @bytes_to_dfilter_repr(ptr noundef %0, ptr noundef %33, i64 noundef %34)
  store volatile ptr %35, ptr %5, align 8
  br label %36

36:                                               ; preds = %30, %31, %20, %17
  %.0..0..0..0.4 = load volatile i32, ptr %7, align 4
  %37 = icmp eq i32 %.0..0..0..0.4, 0
  br i1 %37, label %38, label %41

38:                                               ; preds = %36
  %.0..0..0..0.8 = load volatile ptr, ptr %6, align 8
  %.not32 = icmp eq ptr %.0..0..0..0.8, null
  br i1 %.not32, label %41, label %39

39:                                               ; preds = %38
  %.0..0..0..0.5 = load volatile i32, ptr %7, align 4
  %40 = or i32 %.0..0..0..0.5, 1
  store volatile i32 %40, ptr %7, align 4
  br label %41

41:                                               ; preds = %39, %38, %36
  %.0..0..0..0.6 = load volatile i32, ptr %7, align 4
  %42 = and i32 %.0..0..0..0.6, 1
  %.not33 = icmp eq i32 %42, 0
  br i1 %.not33, label %43, label %45

43:                                               ; preds = %41
  %.0..0..0..0.9 = load volatile ptr, ptr %6, align 8
  %.not34 = icmp eq ptr %.0..0..0..0.9, null
  br i1 %.not34, label %45, label %44

44:                                               ; preds = %43
  %.0..0..0..0.10 = load volatile ptr, ptr %6, align 8
  call void @except_rethrow(ptr noundef %.0..0..0..0.10) #14
  unreachable

45:                                               ; preds = %43, %41
  %46 = getelementptr inbounds nuw i8, ptr %9, i64 40
  %47 = load volatile ptr, ptr %46, align 8
  call void @except_free(ptr noundef %47)
  %48 = call ptr @except_pop()
  call void @llvm.lifetime.end.p0(i64 248, ptr nonnull %9) #12
  call void @llvm.lifetime.end.p0(i64 24, ptr nonnull %8) #12
  call void @llvm.lifetime.end.p0(i64 4, ptr nonnull %7)
  call void @llvm.lifetime.end.p0(i64 8, ptr nonnull %6)
  %.0..0..0..0.11 = load volatile ptr, ptr %5, align 8
  br label %49

49:                                               ; preds = %4, %45
  %.026 = phi ptr [ %.0..0..0..0.11, %45 ], [ null, %4 ]
  call void @llvm.lifetime.end.p0(i64 8, ptr nonnull %5)
  ret ptr %.026
}